(dp0
S'METTS MARK'
p1
(dp2
S'to_messages'
p3
F807.0
sS'deferral_payments'
p4
S'NaN'
p5
sS'exercised_ratio'
p6
S'NaN'
p7
sS'restricted_ratio'
p8
F1.0
sS'salary_bonus_ratio'
p9
F0.6096466666666667
sS'expenses'
p10
F94299.0
sS'poi'
p11
I00
sS'long_term_incentive'
p12
S'NaN'
p13
sS'email_address'
p14
S'mark.metts@enron.com'
p15
sS'from_poi_to_this_person'
p16
F38.0
sS'deferred_income'
p17
S'NaN'
p18
sS'restricted_stock_deferred'
p19
S'NaN'
p20
sS'shared_receipt_with_poi'
p21
F702.0
sS'loan_advances'
p22
S'NaN'
p23
sS'from_messages'
p24
F29.0
sS'other'
p25
F1740.0
sS'to_poi_ratio'
p26
F0.034482758620689655
sS'director_fees'
p27
S'NaN'
p28
sS'total_sp_ratio'
p29
F1.8148965408794282
sS'bonus'
p30
F600000.0
sS'total_stock_value'
p31
F585062.0
sS'from_this_person_to_poi'
p32
F1.0
sS'from_poi_ratio'
p33
F0.04708798017348203
sS'restricted_stock'
p34
F585062.0
sS'salary'
p35
F365788.0
sS'total_payments'
p36
F1061827.0
sS'exercised_stock_options'
p37
S'NaN'
p38
ssS'BAXTER JOHN C'
p39
(dp40
g3
S'NaN'
p41
sg4
F1295738.0
sg6
F0.6288601858299968
sg8
F0.3711398141700032
sg9
F0.222585
sg10
F11200.0
sg11
I00
sg12
F1586055.0
sg14
S'NaN'
p42
sg16
S'NaN'
p43
sg17
F-1386055.0
sg19
g20
sg21
S'NaN'
p44
sg22
g23
sg24
S'NaN'
p45
sg25
F2660303.0
sg26
S'NaN'
p46
sg27
g28
sg29
F0.5303780629257051
sg30
F1200000.0
sg31
F10623258.0
sg32
S'NaN'
p47
sg33
S'NaN'
p48
sg34
F3942714.0
sg35
F267102.0
sg36
F5634343.0
sg37
F6680544.0
ssS'ELLIOTT STEVEN'
p49
(dp50
g3
g41
sg4
g5
sg6
F0.7322260877246963
sg8
F0.2677739122753036
sg9
F0.48840285714285714
sg10
F78552.0
sg11
I00
sg12
g13
sg14
S'steven.elliott@enron.com'
p51
sg16
g43
sg17
F-400729.0
sg19
g20
sg21
g44
sg22
g23
sg24
g45
sg25
F12961.0
sg26
g46
sg27
g28
sg29
F0.03170136260833826
sg30
F350000.0
sg31
F6678735.0
sg32
g47
sg33
g48
sg34
F1788391.0
sg35
F170941.0
sg36
F211725.0
sg37
F4890344.0
ssS'CORDES WILLIAM R'
p52
(dp53
g3
F764.0
sg4
g5
sg6
F0.6278746080900803
sg8
F0.3721253919099197
sg9
S'NaN'
p54
sg10
S'NaN'
p55
sg11
I00
sg12
g13
sg14
S'bill.cordes@enron.com'
p56
sg16
F10.0
sg17
g18
sg19
g20
sg21
F58.0
sg22
g23
sg24
F12.0
sg25
S'NaN'
p57
sg26
g46
sg27
g28
sg29
S'NaN'
p58
sg30
S'NaN'
p59
sg31
F1038185.0
sg32
g47
sg33
F0.013089005235602094
sg34
F386335.0
sg35
S'NaN'
p60
sg36
S'NaN'
p61
sg37
F651850.0
ssS'HANNON KEVIN P'
p62
(dp63
g3
F1045.0
sg4
g5
sg6
F0.8665224027607292
sg8
F0.13347759723927077
sg9
F0.16219533333333333
sg10
F34039.0
sg11
I01
sg12
F1617011.0
sg14
S'kevin.hannon@enron.com'
p64
sg16
F32.0
sg17
F-3117011.0
sg19
g20
sg21
F1035.0
sg22
g23
sg24
F32.0
sg25
F11350.0
sg26
F0.65625
sg27
g28
sg29
F0.045169623529098826
sg30
F1500000.0
sg31
F6391065.0
sg32
F21.0
sg33
F0.03062200956937799
sg34
F853064.0
sg35
F243293.0
sg36
F288682.0
sg37
F5538001.0
ssS'MORDAUNT KRISTINA M'
p65
(dp66
g3
g41
sg4
g5
sg6
g7
sg8
F1.0
sg9
F0.8218246153846154
sg10
F35018.0
sg11
I00
sg12
g13
sg14
S'kristina.mordaunt@enron.com'
p67
sg16
g43
sg17
g18
sg19
g20
sg21
g44
sg22
g23
sg24
g45
sg25
F1411.0
sg26
g46
sg27
g28
sg29
F3.014349431681934
sg30
F325000.0
sg31
F208510.0
sg32
g47
sg33
g48
sg34
F208510.0
sg35
F267093.0
sg36
F628522.0
sg37
g38
ssS'MEYER ROCKFORD G'
p68
(dp69
g3
F232.0
sg4
F1848227.0
sg6
F0.5162704668925684
sg8
F0.4837295331074316
sg9
g54
sg10
g55
sg11
I00
sg12
g13
sg14
S'rockford.meyer@enron.com'
p70
sg16
g43
sg17
g18
sg19
g20
sg21
F22.0
sg22
g23
sg24
F28.0
sg25
g57
sg26
g46
sg27
g28
sg29
F1.9335487036457772
sg30
g59
sg31
F955873.0
sg32
g47
sg33
g48
sg34
F462384.0
sg35
g60
sg36
F1848227.0
sg37
F493489.0
ssS'MCMAHON JEFFREY'
p71
(dp72
g3
F2355.0
sg4
g5
sg6
F0.6639508556067727
sg8
F0.3360491443932273
sg9
F0.14248
sg10
F137108.0
sg11
I00
sg12
F694862.0
sg14
S'jeffrey.mcmahon@enron.com'
p73
sg16
F58.0
sg17
g18
sg19
g20
sg21
F2228.0
sg22
g23
sg24
F48.0
sg25
F297353.0
sg26
F0.5416666666666666
sg27
g28
sg29
F2.4655012012472524
sg30
F2600000.0
sg31
F1662855.0
sg32
F26.0
sg33
F0.024628450106157114
sg34
F558801.0
sg35
F370448.0
sg36
F4099771.0
sg37
F1104054.0
ssS'HAEDICKE MARK E'
p74
(dp75
g3
F4009.0
sg4
F2157527.0
sg6
F0.7580059121348186
sg8
F0.6526869830928883
sg9
F0.32532608695652177
sg10
F76169.0
sg11
I00
sg12
F983346.0
sg14
S'mark.haedicke@enron.com'
p76
sg16
F180.0
sg17
F-934484.0
sg19
F-329825.0
sg21
F1847.0
sg22
g23
sg24
F1941.0
sg25
F52382.0
sg26
F0.03142709943328181
sg27
g28
sg29
F4.805246957392285
sg30
F1150000.0
sg31
F803094.0
sg32
F61.0
sg33
F0.04489897730107259
sg34
F524169.0
sg35
F374125.0
sg36
F3859065.0
sg37
F608750.0
ssS'PIPER GREGORY F'
p77
(dp78
g3
F1238.0
sg4
F1130036.0
sg6
F1.0
sg8
F0.46524895204989264
sg9
F0.4927275
sg10
F43057.0
sg11
I00
sg12
g13
sg14
S'greg.piper@enron.com'
p79
sg16
F61.0
sg17
F-33333.0
sg19
F-409554.0
sg21
F742.0
sg22
g23
sg24
F222.0
sg25
F778.0
sg26
F0.21621621621621623
sg27
g28
sg29
F1.9739279101205285
sg30
F400000.0
sg31
F880290.0
sg32
F48.0
sg33
F0.049273021001615507
sg34
F409554.0
sg35
F197091.0
sg36
F1737629.0
sg37
F880290.0
ssS'HUMPHREY GENE E'
p80
(dp81
g3
F128.0
sg4
F2964506.0
sg6
F1.0
sg8
S'NaN'
p82
sg9
g54
sg10
F4994.0
sg11
I00
sg12
g13
sg14
S'gene.humphrey@enron.com'
p83
sg16
F10.0
sg17
g18
sg19
g20
sg21
F119.0
sg22
g23
sg24
F17.0
sg25
g57
sg26
F1.0
sg27
g28
sg29
F1.3580985890813257
sg30
g59
sg31
F2282768.0
sg32
F17.0
sg33
F0.078125
sg34
S'NaN'
p84
sg35
F130724.0
sg36
F3100224.0
sg37
F2282768.0
ssS'NOLES JAMES L'
p85
(dp86
g3
g41
sg4
F774401.0
sg6
g7
sg8
F1.2564543469711558
sg9
g54
sg10
g55
sg11
I00
sg12
g13
sg14
g42
sg16
g43
sg17
g18
sg19
F-94556.0
sg21
g44
sg22
g23
sg24
g45
sg25
g57
sg26
g46
sg27
g28
sg29
F2.10032681954408
sg30
g59
sg31
F368705.0
sg32
g47
sg33
g48
sg34
F463261.0
sg35
g60
sg36
F774401.0
sg37
g38
ssS'BLACHMAN JEREMY M'
p87
(dp88
g3
F2475.0
sg4
g5
sg6
F0.8019173178925221
sg8
F0.19808268210747793
sg9
F0.2924070588235294
sg10
F84208.0
sg11
I00
sg12
F831809.0
sg14
S'jeremy.blachman@enron.com'
p89
sg16
F25.0
sg17
g18
sg19
g20
sg21
F2326.0
sg22
g23
sg24
F14.0
sg25
F272.0
sg26
F0.14285714285714285
sg27
g28
sg29
F2.1112029708053823
sg30
F850000.0
sg31
F954354.0
sg32
F2.0
sg33
F0.010101010101010102
sg34
F189041.0
sg35
F248546.0
sg36
F2014835.0
sg37
F765313.0
ssS'SUNDE MARTIN'
p90
(dp91
g3
F2647.0
sg4
g5
sg6
g7
sg8
F1.0
sg9
F0.36783714285714286
sg10
g55
sg11
I00
sg12
F476451.0
sg14
S'marty.sunde@enron.com'
p92
sg16
F37.0
sg17
g18
sg19
g20
sg21
F2565.0
sg22
g23
sg24
F38.0
sg25
F111122.0
sg26
F0.34210526315789475
sg27
g28
sg29
F2.2106378412407715
sg30
F700000.0
sg31
F698920.0
sg32
F13.0
sg33
F0.013978088401964487
sg34
F698920.0
sg35
F257486.0
sg36
F1545059.0
sg37
g38
ssS'GIBBS DANA R'
p93
(dp94
g3
F169.0
sg4
F504610.0
sg6
F1.0
sg8
g82
sg9
g54
sg10
g55
sg11
I00
sg12
F461912.0
sg14
S'dana.gibbs@enron.com'
p95
sg16
g43
sg17
g18
sg19
g20
sg21
F23.0
sg22
g23
sg24
F12.0
sg25
g57
sg26
g46
sg27
g28
sg29
F0.43570882780538933
sg30
g59
sg31
F2218275.0
sg32
g47
sg33
g48
sg34
g84
sg35
g60
sg36
F966522.0
sg37
F2218275.0
ssS'LOWRY CHARLES P'
p96
(dp97
g3
g41
sg4
g5
sg6
F1.0
sg8
F0.41290686584006125
sg9
g54
sg10
g55
sg11
I00
sg12
g13
sg14
g42
sg16
g43
sg17
g18
sg19
F-153686.0
sg21
g44
sg22
g23
sg24
g45
sg25
g57
sg26
g46
sg27
g28
sg29
g58
sg30
g59
sg31
F372205.0
sg32
g47
sg33
g48
sg34
F153686.0
sg35
g60
sg36
g61
sg37
F372205.0
ssS'COLWELL WESLEY'
p98
(dp99
g3
F1758.0
sg4
F27610.0
sg6
g7
sg8
F1.0
sg9
F0.24045166666666667
sg10
F16514.0
sg11
I01
sg12
g13
sg14
S'wes.colwell@enron.com'
p100
sg16
F240.0
sg17
F-144062.0
sg19
g20
sg21
F1132.0
sg22
g23
sg24
F40.0
sg25
F101740.0
sg26
F0.275
sg27
g28
sg29
F2.1344233088241613
sg30
F1200000.0
sg31
F698242.0
sg32
F11.0
sg33
F0.13651877133105803
sg34
F698242.0
sg35
F288542.0
sg36
F1490344.0
sg37
g38
ssS'MULLER MARK S'
p101
(dp102
g3
F136.0
sg4
F842924.0
sg6
F0.7455422176549636
sg8
F0.2544577823450363
sg9
F0.22877636363636364
sg10
g55
sg11
I00
sg12
F1725545.0
sg14
S's..muller@enron.com'
p103
sg16
F12.0
sg17
F-719000.0
sg19
g20
sg21
F114.0
sg22
g23
sg24
F16.0
sg25
F947.0
sg26
g46
sg27
g28
sg29
F2.259995426467765
sg30
F1100000.0
sg31
F1416848.0
sg32
g47
sg33
F0.08823529411764706
sg34
F360528.0
sg35
F251654.0
sg36
F3202070.0
sg37
F1056320.0
ssS'JACKSON CHARLENE R'
p104
(dp105
g3
F258.0
sg4
g5
sg6
F0.25500079230021977
sg8
F0.7449992076997802
sg9
F1.154232
sg10
F10181.0
sg11
I00
sg12
g13
sg14
S'charlene.jackson@enron.com'
p106
sg16
F25.0
sg17
g18
sg19
g20
sg21
F117.0
sg22
g23
sg24
F56.0
sg25
F2435.0
sg26
F0.3392857142857143
sg27
g28
sg29
F0.759470054496476
sg30
F250000.0
sg31
F725735.0
sg32
F19.0
sg33
F0.09689922480620156
sg34
F540672.0
sg35
F288558.0
sg36
F551174.0
sg37
F185063.0
ssS'WESTFAHL RICHARD K'
p107
(dp108
g3
g41
sg4
g5
sg6
g7
sg8
F1.0
sg9
g54
sg10
F51870.0
sg11
I00
sg12
F256191.0
sg14
S'dick.westfahl@enron.com'
p109
sg16
g43
sg17
F-10800.0
sg19
g20
sg21
g44
sg22
g23
sg24
g45
sg25
F401130.0
sg26
g46
sg27
g28
sg29
F1.9799314161016288
sg30
g59
sg31
F384930.0
sg32
g47
sg33
g48
sg34
F384930.0
sg35
F63744.0
sg36
F762135.0
sg37
g38
ssS'WALTERS GARETH W'
p110
(dp111
g3
g41
sg4
F53625.0
sg6
F1.0
sg8
g82
sg9
g54
sg10
F33785.0
sg11
I00
sg12
g13
sg14
g42
sg16
g43
sg17
g18
sg19
g20
sg21
g44
sg22
g23
sg24
g45
sg25
g57
sg26
g46
sg27
g28
sg29
F0.08483697925614052
sg30
g59
sg31
F1030329.0
sg32
g47
sg33
g48
sg34
g84
sg35
g60
sg36
F87410.0
sg37
F1030329.0
ssS'WALLS JR ROBERT H'
p112
(dp113
g3
F671.0
sg4
g5
sg6
F0.7368276335790643
sg8
F0.2631723664209356
sg9
F0.4201070588235294
sg10
F50936.0
sg11
I00
sg12
F540751.0
sg14
S'rob.walls@enron.com'
p114
sg16
F17.0
sg17
g18
sg19
g20
sg21
F215.0
sg22
g23
sg24
F146.0
sg25
F2.0
sg26
g46
sg27
g28
sg29
F0.30492980416840354
sg30
F850000.0
sg31
F5898997.0
sg32
g47
sg33
F0.02533532041728763
sg34
F1552453.0
sg35
F357091.0
sg36
F1798780.0
sg37
F4346544.0
ssS'KITCHEN LOUISE'
p115
(dp116
g3
F8305.0
sg4
g5
sg6
F0.14811849918577044
sg8
F0.8518815008142295
sg9
F0.08756193548387096
sg10
F5774.0
sg11
I00
sg12
g13
sg14
S'louise.kitchen@enron.com'
p117
sg16
F251.0
sg17
g18
sg19
g20
sg21
F3669.0
sg22
g23
sg24
F1728.0
sg25
F93925.0
sg26
F0.11226851851851852
sg27
g28
sg29
F6.344120275686612
sg30
F3100000.0
sg31
F547143.0
sg32
F194.0
sg33
F0.030222757375075255
sg34
F466101.0
sg35
F271442.0
sg36
F3471141.0
sg37
F81042.0
ssS'CHAN RONNIE'
p118
(dp119
g3
g41
sg4
g5
sg6
g7
sg8
g82
sg9
g54
sg10
g55
sg11
I00
sg12
g13
sg14
g42
sg16
g43
sg17
F-98784.0
sg19
F-32460.0
sg21
g44
sg22
g23
sg24
g45
sg25
g57
sg26
g46
sg27
F98784.0
sg29
g58
sg30
g59
sg31
S'NaN'
p120
sg32
g47
sg33
g48
sg34
F32460.0
sg35
g60
sg36
g61
sg37
g38
ssS'BELFER ROBERT'
p121
(dp122
g3
g41
sg4
F-102500.0
sg6
F-0.07450162157258522
sg8
g82
sg9
g54
sg10
g55
sg11
I00
sg12
g13
sg14
g42
sg16
g43
sg17
g18
sg19
F44093.0
sg21
g44
sg22
g23
sg24
g45
sg25
g57
sg26
g46
sg27
F3285.0
sg29
F-2.3246320277595083
sg30
g59
sg31
F-44093.0
sg32
g47
sg33
g48
sg34
g84
sg35
g60
sg36
F102500.0
sg37
F3285.0
ssS'SHANKMAN JEFFREY A'
p123
(dp124
g3
F3221.0
sg4
g5
sg6
F0.6958849633331483
sg8
F0.3041150366668517
sg9
F0.152055
sg10
F178979.0
sg11
I00
sg12
F554422.0
sg14
S'jeffrey.shankman@enron.com'
p125
sg16
F94.0
sg17
g18
sg19
g20
sg21
F1730.0
sg22
g23
sg24
F2681.0
sg25
F1191.0
sg26
F0.030958597538232
sg27
g28
sg29
F1.4665302468346335
sg30
F2000000.0
sg31
F2072035.0
sg32
F83.0
sg33
F0.029183483390251473
sg34
F630137.0
sg35
F304110.0
sg36
F3038702.0
sg37
F1441898.0
ssS'WODRASKA JOHN'
p126
(dp127
g3
g41
sg4
g5
sg6
g7
sg8
g82
sg9
g54
sg10
g55
sg11
I00
sg12
g13
sg14
S'john.wodraska@enron.com'
p128
sg16
g43
sg17
g18
sg19
g20
sg21
g44
sg22
g23
sg24
g45
sg25
F189583.0
sg26
g46
sg27
g28
sg29
g58
sg30
g59
sg31
g120
sg32
g47
sg33
g48
sg34
g84
sg35
g60
sg36
F189583.0
sg37
g38
ssS'BERGSIEKER RICHARD P'
p129
(dp130
g3
F383.0
sg4
g5
sg6
g7
sg8
F1.0
sg9
F0.751688
sg10
F59175.0
sg11
I00
sg12
F180250.0
sg14
S'rick.bergsieker@enron.com'
p131
sg16
F4.0
sg17
F-485813.0
sg19
g20
sg21
F233.0
sg22
g23
sg24
F59.0
sg25
F427316.0
sg26
g46
sg27
g28
sg29
F0.9387196643453384
sg30
F250000.0
sg31
F659249.0
sg32
g47
sg33
F0.010443864229765013
sg34
F659249.0
sg35
F187922.0
sg36
F618850.0
sg37
g38
ssS'URQUHART JOHN A'
p132
(dp133
g3
g41
sg4
g5
sg6
g7
sg8
g82
sg9
g54
sg10
F228656.0
sg11
I00
sg12
g13
sg14
g42
sg16
g43
sg17
F-36666.0
sg19
g20
sg21
g44
sg22
g23
sg24
g45
sg25
g57
sg26
g46
sg27
F36666.0
sg29
g58
sg30
g59
sg31
g120
sg32
g47
sg33
g48
sg34
g84
sg35
g60
sg36
F228656.0
sg37
g38
ssS'BIBI PHILIPPE A'
p134
(dp135
g3
F1607.0
sg4
g5
sg6
F0.7949459165122768
sg8
F0.20505408348772328
sg9
F0.213625
sg10
F38559.0
sg11
I00
sg12
F369721.0
sg14
S'philippe.bibi@enron.com'
p136
sg16
F23.0
sg17
g18
sg19
g20
sg21
F1336.0
sg22
g23
sg24
F40.0
sg25
F425688.0
sg26
F0.2
sg27
g28
sg29
F1.110519162432694
sg30
F1000000.0
sg31
F1843816.0
sg32
F8.0
sg33
F0.01431238332296204
sg34
F378082.0
sg35
F213625.0
sg36
F2047593.0
sg37
F1465734.0
ssS'RIEKER PAULA H'
p137
(dp138
g3
F1328.0
sg4
F214678.0
sg6
F0.8521804566918219
sg8
F0.14781954330817812
sg9
F0.3560014285714286
sg10
F33271.0
sg11
I01
sg12
g13
sg14
S'paula.rieker@enron.com'
p139
sg16
F35.0
sg17
F-100000.0
sg19
g20
sg21
F1258.0
sg22
g23
sg24
F82.0
sg25
F1950.0
sg26
F0.5853658536585366
sg27
g28
sg29
F0.5727799500439578
sg30
F700000.0
sg31
F1918887.0
sg32
F48.0
sg33
F0.02635542168674699
sg34
F283649.0
sg35
F249201.0
sg36
F1099100.0
sg37
F1635238.0
ssS'WHALEY DAVID A'
p140
(dp141
g3
g41
sg4
g5
sg6
F1.0
sg8
g82
sg9
g54
sg10
g55
sg11
I00
sg12
g13
sg14
g42
sg16
g43
sg17
g18
sg19
g20
sg21
g44
sg22
g23
sg24
g45
sg25
g57
sg26
g46
sg27
g28
sg29
g58
sg30
g59
sg31
F98718.0
sg32
g47
sg33
g48
sg34
g84
sg35
g60
sg36
g61
sg37
F98718.0
ssS'BECK SALLY W'
p142
(dp143
g3
F7315.0
sg4
g5
sg6
g7
sg8
F1.0
sg9
F0.3304714285714286
sg10
F37172.0
sg11
I00
sg12
g13
sg14
S'sally.beck@enron.com'
p144
sg16
F144.0
sg17
g18
sg19
g20
sg21
F2639.0
sg22
g23
sg24
F4343.0
sg25
F566.0
sg26
F0.08887865530739121
sg27
g28
sg29
F7.689368151269172
sg30
F700000.0
sg31
F126027.0
sg32
F386.0
sg33
F0.01968557758031442
sg34
F126027.0
sg35
F231330.0
sg36
F969068.0
sg37
g38
ssS'HAUG DAVID L'
p145
(dp146
g3
F573.0
sg4
g5
sg6
g7
sg8
F1.0
sg9
g54
sg10
F475.0
sg11
I00
sg12
g13
sg14
S'david.haug@enron.com'
p147
sg16
F4.0
sg17
g18
sg19
g20
sg21
F471.0
sg22
g23
sg24
F19.0
sg25
g57
sg26
F0.3684210526315789
sg27
g28
sg29
F0.00021422460389870738
sg30
g59
sg31
F2217299.0
sg32
F7.0
sg33
F0.006980802792321117
sg34
F2217299.0
sg35
g60
sg36
F475.0
sg37
g38
ssS'ECHOLS JOHN B'
p148
(dp149
g3
g41
sg4
g5
sg6
F0.5961081966140735
sg8
F0.40389180338592645
sg9
F0.911225
sg10
F21530.0
sg11
I00
sg12
F2234774.0
sg14
S'john.echols@enron.com'
p150
sg16
g43
sg17
g18
sg19
g20
sg21
g44
sg22
g23
sg24
g45
sg25
F53775.0
sg26
g46
sg27
g28
sg29
F2.6684652521802565
sg30
F200000.0
sg31
F1008941.0
sg32
g47
sg33
g48
sg34
F407503.0
sg35
F182245.0
sg36
F2692324.0
sg37
F601438.0
ssS'MENDELSOHN JOHN'
p151
(dp152
g3
g41
sg4
g5
sg6
g7
sg8
g82
sg9
g54
sg10
F148.0
sg11
I00
sg12
g13
sg14
g42
sg16
g43
sg17
F-103750.0
sg19
g20
sg21
g44
sg22
g23
sg24
g45
sg25
g57
sg26
g46
sg27
F103750.0
sg29
g58
sg30
g59
sg31
g120
sg32
g47
sg33
g48
sg34
g84
sg35
g60
sg36
F148.0
sg37
g38
ssS'HICKERSON GARY J'
p153
(dp154
g3
F1320.0
sg4
g5
sg6
g7
sg8
F1.0
sg9
F0.12458117647058824
sg10
F98849.0
sg11
I00
sg12
F69223.0
sg14
S'gary.hickerson@enron.com'
p155
sg16
F40.0
sg17
g18
sg19
g20
sg21
F900.0
sg22
g23
sg24
F27.0
sg25
F1936.0
sg26
F0.037037037037037035
sg27
g28
sg29
F4.719598454758148
sg30
F1700000.0
sg31
F441096.0
sg32
F1.0
sg33
F0.030303030303030304
sg34
F441096.0
sg35
F211788.0
sg36
F2081796.0
sg37
g38
ssS'CLINE KENNETH W'
p156
(dp157
g3
g41
sg4
g5
sg6
g7
sg8
F3.4935256809379585
sg9
g54
sg10
g55
sg11
I00
sg12
g13
sg14
g42
sg16
g43
sg17
g18
sg19
F-472568.0
sg21
g44
sg22
g23
sg24
g45
sg25
g57
sg26
g46
sg27
g28
sg29
g58
sg30
g59
sg31
F189518.0
sg32
g47
sg33
g48
sg34
F662086.0
sg35
g60
sg36
g61
sg37
g38
ssS'LEWIS RICHARD'
p158
(dp159
g3
F952.0
sg4
g5
sg6
F1.0
sg8
g82
sg9
g54
sg10
g55
sg11
I00
sg12
g13
sg14
S'richard.lewis@enron.com'
p160
sg16
F10.0
sg17
g18
sg19
g20
sg21
F739.0
sg22
g23
sg24
F26.0
sg25
g57
sg26
g46
sg27
g28
sg29
g58
sg30
g59
sg31
F850477.0
sg32
g47
sg33
F0.01050420168067227
sg34
g84
sg35
g60
sg36
g61
sg37
F850477.0
ssS'HAYES ROBERT E'
p161
(dp162
g3
F504.0
sg4
F7961.0
sg6
g7
sg8
F1.0
sg9
g54
sg10
g55
sg11
I00
sg12
g13
sg14
S'robert.hayes@enron.com'
p163
sg16
F16.0
sg17
g18
sg19
g20
sg21
F50.0
sg22
g23
sg24
F12.0
sg25
g57
sg26
g46
sg27
g28
sg29
F0.05257631193121029
sg30
g59
sg31
F151418.0
sg32
g47
sg33
F0.031746031746031744
sg34
F151418.0
sg35
g60
sg36
F7961.0
sg37
g38
ssS'KOPPER MICHAEL J'
p164
(dp165
g3
g41
sg4
g5
sg6
g7
sg8
F1.0
sg9
F0.28038125
sg10
F118134.0
sg11
I01
sg12
F602671.0
sg14
S'michael.kopper@enron.com'
p166
sg16
g43
sg17
g18
sg19
g20
sg21
g44
sg22
g23
sg24
g45
sg25
F907502.0
sg26
g46
sg27
g28
sg29
F2.6929196208854127
sg30
F800000.0
sg31
F985032.0
sg32
g47
sg33
g48
sg34
F985032.0
sg35
F224305.0
sg36
F2652612.0
sg37
g38
ssS'LEFF DANIEL P'
p167
(dp168
g3
F2822.0
sg4
g5
sg6
g7
sg8
F1.0
sg9
F0.273746
sg10
g55
sg11
I00
sg12
F1387399.0
sg14
S'dan.leff@enron.com'
p169
sg16
F67.0
sg17
g18
sg19
g20
sg21
F2672.0
sg22
g23
sg24
F63.0
sg25
F3083.0
sg26
F0.2222222222222222
sg27
g28
sg29
F7.3897949673811745
sg30
F1000000.0
sg31
F360528.0
sg32
F14.0
sg33
F0.02374202693125443
sg34
F360528.0
sg35
F273746.0
sg36
F2664228.0
sg37
g38
ssS'LAVORATO JOHN J'
p170
(dp171
g3
F7259.0
sg4
g5
sg6
F0.80489241252034
sg8
F0.19510758747965995
sg9
F0.042411
sg10
F49537.0
sg11
I00
sg12
F2035380.0
sg14
S'john.lavorato@enron.com'
p172
sg16
F528.0
sg17
g18
sg19
g20
sg21
F3962.0
sg22
g23
sg24
F2585.0
sg25
F1552.0
sg26
F0.15899419729206962
sg27
g28
sg29
F2.0177020419790894
sg30
F8000000.0
sg31
F5167144.0
sg32
F411.0
sg33
F0.07273729163796666
sg34
F1008149.0
sg35
F339288.0
sg36
F10425757.0
sg37
F4158995.0
ssS'BERBERIAN DAVID'
p173
(dp174
g3
g41
sg4
g5
sg6
F0.6514218708895034
sg8
F0.34857812911049657
sg9
g54
sg10
F11892.0
sg11
I00
sg12
g13
sg14
S'david.berberian@enron.com'
p175
sg16
g43
sg17
g18
sg19
g20
sg21
g44
sg22
g23
sg24
g45
sg25
g57
sg26
g46
sg27
g28
sg29
F0.09162356994821977
sg30
g59
sg31
F2493616.0
sg32
g47
sg33
g48
sg34
F869220.0
sg35
F216582.0
sg36
F228474.0
sg37
F1624396.0
ssS'DETMERING TIMOTHY J'
p176
(dp177
g3
g41
sg4
F875307.0
sg6
F1.0
sg8
F0.15536931699102258
sg9
F0.49529411764705883
sg10
F52255.0
sg11
I00
sg12
F415657.0
sg14
S'timothy.detmering@enron.com'
p178
sg16
g43
sg17
F-775241.0
sg19
F-315068.0
sg21
g44
sg22
g23
sg24
g45
sg25
F1105.0
sg26
g46
sg27
g28
sg29
F0.5940153807082819
sg30
F425000.0
sg31
F2027865.0
sg32
g47
sg33
g48
sg34
F315068.0
sg35
F210500.0
sg36
F1204583.0
sg37
F2027865.0
ssS'WAKEHAM JOHN'
p179
(dp180
g3
g41
sg4
g5
sg6
g7
sg8
g82
sg9
g54
sg10
F103773.0
sg11
I00
sg12
g13
sg14
g42
sg16
g43
sg17
g18
sg19
g20
sg21
g44
sg22
g23
sg24
g45
sg25
g57
sg26
g46
sg27
F109298.0
sg29
g58
sg30
g59
sg31
g120
sg32
g47
sg33
g48
sg34
g84
sg35
g60
sg36
F213071.0
sg37
g38
ssS'POWERS WILLIAM'
p181
(dp182
g3
F653.0
sg4
g5
sg6
g7
sg8
g82
sg9
g54
sg10
g55
sg11
I00
sg12
g13
sg14
S'ken.powers@enron.com'
p183
sg16
g43
sg17
F-17500.0
sg19
g20
sg21
F12.0
sg22
g23
sg24
F26.0
sg25
g57
sg26
g46
sg27
F17500.0
sg29
g58
sg30
g59
sg31
g120
sg32
g47
sg33
g48
sg34
g84
sg35
g60
sg36
g61
sg37
g38
ssS'GOLD JOSEPH'
p184
(dp185
g3
g41
sg4
g5
sg6
F0.4973900737342627
sg8
F0.5026099262657373
sg9
F0.36384
sg10
g55
sg11
I00
sg12
F304805.0
sg14
S'joe.gold@enron.com'
p186
sg16
g43
sg17
g18
sg19
g20
sg21
g44
sg22
g23
sg24
g45
sg25
F819288.0
sg26
g46
sg27
g28
sg29
F2.446383420444821
sg30
F750000.0
sg31
F877611.0
sg32
g47
sg33
g48
sg34
F441096.0
sg35
F272880.0
sg36
F2146973.0
sg37
F436515.0
ssS'BANNANTINE JAMES M'
p187
(dp188
g3
F566.0
sg4
g5
sg6
F0.7716538631639595
sg8
F0.33518763372541976
sg9
g54
sg10
F56301.0
sg11
I00
sg12
g13
sg14
S'james.bannantine@enron.com'
p189
sg16
F39.0
sg17
F-5104.0
sg19
F-560222.0
sg21
F465.0
sg22
g23
sg24
F29.0
sg25
F864523.0
sg26
g46
sg27
g28
sg29
F0.17473047992681207
sg30
g59
sg31
F5243487.0
sg32
g47
sg33
F0.06890459363957598
sg34
F1757552.0
sg35
F477.0
sg36
F916197.0
sg37
F4046157.0
ssS'DUNCAN JOHN H'
p190
(dp191
g3
g41
sg4
g5
sg6
F1.0
sg8
g82
sg9
g54
sg10
g55
sg11
I00
sg12
g13
sg14
g42
sg16
g43
sg17
F-25000.0
sg19
g20
sg21
g44
sg22
g23
sg24
g45
sg25
g57
sg26
g46
sg27
F102492.0
sg29
F0.20845191661062543
sg30
g59
sg31
F371750.0
sg32
g47
sg33
g48
sg34
g84
sg35
g60
sg36
F77492.0
sg37
F371750.0
ssS'SHAPIRO RICHARD S'
p192
(dp193
g3
F15149.0
sg4
g5
sg6
F0.6158423345062467
sg8
F0.3841576654937533
sg9
F0.41396307692307693
sg10
F137767.0
sg11
I00
sg12
g13
sg14
S'richard.shapiro@enron.com'
p194
sg16
F74.0
sg17
g18
sg19
g20
sg21
F4527.0
sg22
g23
sg24
F1215.0
sg25
F705.0
sg26
F0.053497942386831275
sg27
g28
sg29
F1.0714761180586443
sg30
F650000.0
sg31
F987001.0
sg32
F65.0
sg33
F0.0048848108786058485
sg34
F379164.0
sg35
F269076.0
sg36
F1057548.0
sg37
F607837.0
ssS'SHERRIFF JOHN R'
p195
(dp196
g3
F3187.0
sg4
g5
sg6
F0.5866310512492562
sg8
F0.41336894875074387
sg9
F0.28585333333333335
sg10
g55
sg11
I00
sg12
F554422.0
sg14
S'john.sherriff@enron.com'
p197
sg16
F28.0
sg17
g18
sg19
g20
sg21
F2103.0
sg22
g23
sg24
F92.0
sg25
F1852186.0
sg26
F0.25
sg27
g28
sg29
F1.3855586257766903
sg30
F1500000.0
sg31
F3128982.0
sg32
F23.0
sg33
F0.008785691873235017
sg34
F1293424.0
sg35
F428780.0
sg36
F4335388.0
sg37
F1835558.0
ssS'SHELBY REX'
p198
(dp199
g3
F225.0
sg4
g5
sg6
F0.6514218708895034
sg8
F0.34857812911049657
sg9
F1.05922
sg10
F22884.0
sg11
I01
sg12
g13
sg14
S'rex.shelby@enron.com'
p200
sg16
F13.0
sg17
F-4167.0
sg19
g20
sg21
F91.0
sg22
g23
sg24
F39.0
sg25
F1573324.0
sg26
F0.358974358974359
sg27
g28
sg29
F0.8036060885076131
sg30
F200000.0
sg31
F2493616.0
sg32
F14.0
sg33
F0.057777777777777775
sg34
F869220.0
sg35
F211844.0
sg36
F2003885.0
sg37
F1624396.0
ssS'LEMAISTRE CHARLES'
p201
(dp202
g3
g41
sg4
g5
sg6
F1.0
sg8
g82
sg9
g54
sg10
g55
sg11
I00
sg12
g13
sg14
g42
sg16
g43
sg17
F-25000.0
sg19
g20
sg21
g44
sg22
g23
sg24
g45
sg25
g57
sg26
g46
sg27
F112492.0
sg29
F0.2119076337319983
sg30
g59
sg31
F412878.0
sg32
g47
sg33
g48
sg34
g84
sg35
g60
sg36
F87492.0
sg37
F412878.0
ssS'DEFFNER JOSEPH M'
p203
(dp204
g3
F714.0
sg4
g5
sg6
F0.10915074963413332
sg8
F0.8908492503658667
sg9
F0.343535
sg10
F41626.0
sg11
I00
sg12
F335349.0
sg14
S'joseph.deffner@enron.com'
p205
sg16
F115.0
sg17
g18
sg19
g20
sg21
F552.0
sg22
g23
sg24
F74.0
sg25
F25553.0
sg26
F0.05405405405405406
sg27
g28
sg29
F7.5914917939087125
sg30
F600000.0
sg31
F159211.0
sg32
F4.0
sg33
F0.16106442577030813
sg34
F141833.0
sg35
F206121.0
sg36
F1208649.0
sg37
F17378.0
ssS'KISHKILL JOSEPH G'
p206
(dp207
g3
g41
sg4
g5
sg6
g7
sg8
F1.0
sg9
g54
sg10
F116335.0
sg11
I00
sg12
g13
sg14
S'joe.kishkill@enron.com'
p208
sg16
g43
sg17
F-51042.0
sg19
g20
sg21
g44
sg22
g23
sg24
g45
sg25
F465357.0
sg26
g46
sg27
g28
sg29
F0.681489559586444
sg30
g59
sg31
F1034346.0
sg32
g47
sg33
g48
sg34
F1034346.0
sg35
F174246.0
sg36
F704896.0
sg37
g38
ssS'WHALLEY LAWRENCE G'
p209
(dp210
g3
F6019.0
sg4
g5
sg6
F0.5400371796194098
sg8
F0.4599628203805902
sg9
F0.17012133333333335
sg10
F57838.0
sg11
I00
sg12
F808346.0
sg14
S'greg.whalley@enron.com'
p211
sg16
F186.0
sg17
g18
sg19
g20
sg21
F3920.0
sg22
g23
sg24
F556.0
sg25
F301026.0
sg26
F0.04316546762589928
sg27
g28
sg29
F0.7694470448683752
sg30
F3000000.0
sg31
F6079137.0
sg32
F24.0
sg33
F0.03090214321315833
sg34
F2796177.0
sg35
F510364.0
sg36
F4677574.0
sg37
F3282960.0
ssS'PIRO JIM'
p212
(dp213
g3
F58.0
sg4
g5
sg6
g7
sg8
F1.0
sg9
g54
sg10
g55
sg11
I00
sg12
g13
sg14
S'jim.piro@enron.com'
p214
sg16
g43
sg17
g18
sg19
g20
sg21
F3.0
sg22
g23
sg24
F16.0
sg25
g57
sg26
F0.0625
sg27
g28
sg29
g58
sg30
g59
sg31
F47304.0
sg32
F1.0
sg33
g48
sg34
F47304.0
sg35
g60
sg36
g61
sg37
g38
ssS'MCCONNELL MICHAEL S'
p215
(dp216
g3
F3329.0
sg4
g5
sg6
F0.5233356947246603
sg8
F0.47666430527533965
sg9
F0.3318527272727273
sg10
F81364.0
sg11
I00
sg12
F554422.0
sg14
S'mike.mcconnell@enron.com'
p217
sg16
F92.0
sg17
g18
sg19
g20
sg21
F2189.0
sg22
g23
sg24
F2742.0
sg25
F540.0
sg26
F0.07075127644055434
sg27
g28
sg29
F0.6775797985282846
sg30
F1100000.0
sg31
F3101279.0
sg32
F194.0
sg33
F0.02763592670471613
sg34
F1478269.0
sg35
F365038.0
sg36
F2101364.0
sg37
F1623010.0
ssS'DELAINEY DAVID W'
p218
(dp219
g3
F3093.0
sg4
g5
sg6
F0.6339091172441614
sg8
F0.3660908827558386
sg9
F0.121721
sg10
F86174.0
sg11
I01
sg12
F1294981.0
sg14
S'david.delainey@enron.com'
p220
sg16
F66.0
sg17
g18
sg19
g20
sg21
F2097.0
sg22
g23
sg24
F3069.0
sg25
F1661.0
sg26
F0.198435972629521
sg27
g28
sg29
F1.3136790619161152
sg30
F3000000.0
sg31
F3614261.0
sg32
F609.0
sg33
F0.02133850630455868
sg34
F1323148.0
sg35
F365163.0
sg36
F4747979.0
sg37
F2291113.0
ssS'SULLIVAN-SHAKLOVITZ COLLEEN'
p221
(dp222
g3
g41
sg4
F181993.0
sg6
F1.0
sg8
g82
sg9
F1.62779
sg10
g55
sg11
I00
sg12
F554422.0
sg14
g42
sg16
g43
sg17
g18
sg19
g20
sg21
g44
sg22
g23
sg24
g45
sg25
F162.0
sg26
g46
sg27
g28
sg29
F0.7335395907881457
sg30
F100000.0
sg31
F1362375.0
sg32
g47
sg33
g48
sg34
g84
sg35
F162779.0
sg36
F999356.0
sg37
F1362375.0
ssS'WROBEL BRUCE'
p223
(dp224
g3
g41
sg4
g5
sg6
F1.0
sg8
g82
sg9
g54
sg10
g55
sg11
I00
sg12
g13
sg14
g42
sg16
g43
sg17
g18
sg19
g20
sg21
g44
sg22
g23
sg24
g45
sg25
g57
sg26
g46
sg27
g28
sg29
g58
sg30
g59
sg31
F139130.0
sg32
g47
sg33
g48
sg34
g84
sg35
g60
sg36
g61
sg37
F139130.0
ssS'LINDHOLM TOD A'
p225
(dp226
g3
g41
sg4
F204075.0
sg6
F0.8319804008083003
sg8
F0.1680195991916998
sg9
F1.182285
sg10
F57727.0
sg11
I00
sg12
F175000.0
sg14
S'tod.lindholm@enron.com'
p227
sg16
g43
sg17
g18
sg19
g20
sg21
g44
sg22
g23
sg24
g45
sg25
F2630.0
sg26
g46
sg27
g28
sg29
F0.28584515150407547
sg30
F200000.0
sg31
F3064208.0
sg32
g47
sg33
g48
sg34
F514847.0
sg35
F236457.0
sg36
F875889.0
sg37
F2549361.0
ssS'MEYER JEROME J'
p228
(dp229
g3
g41
sg4
g5
sg6
g7
sg8
g82
sg9
g54
sg10
F2151.0
sg11
I00
sg12
g13
sg14
g42
sg16
g43
sg17
F-38346.0
sg19
g20
sg21
g44
sg22
g23
sg24
g45
sg25
g57
sg26
g46
sg27
F38346.0
sg29
g58
sg30
g59
sg31
g120
sg32
g47
sg33
g48
sg34
g84
sg35
g60
sg36
F2151.0
sg37
g38
ssS'LAY KENNETH L'
p230
(dp231
g3
F4273.0
sg4
F202911.0
sg6
F0.6994161972212709
sg8
F0.30058380277872904
sg9
F0.1531887142857143
sg10
F99832.0
sg11
I01
sg12
F3600000.0
sg14
S'kenneth.lay@enron.com'
p232
sg16
F123.0
sg17
F-300000.0
sg19
g20
sg21
F2411.0
sg22
F81525000.0
sg24
F36.0
sg25
F10359729.0
sg26
F0.4444444444444444
sg27
g28
sg29
F2.108727927493823
sg30
F7000000.0
sg31
F49110078.0
sg32
F16.0
sg33
F0.028785396676807865
sg34
F14761694.0
sg35
F1072321.0
sg36
F103559793.0
sg37
F34348384.0
ssS'BUTTS ROBERT H'
p233
(dp234
g3
g41
sg4
g5
sg6
g7
sg8
F1.0
sg9
F0.348688
sg10
F9410.0
sg11
I00
sg12
F175000.0
sg14
S'bob.butts@enron.com'
p235
sg16
g43
sg17
F-75000.0
sg19
g20
sg21
g44
sg22
g23
sg24
g45
sg25
F150656.0
sg26
g46
sg27
g28
sg29
F3.0448375193657378
sg30
F750000.0
sg31
F417619.0
sg32
g47
sg33
g48
sg34
F417619.0
sg35
F261516.0
sg36
F1271582.0
sg37
g38
ssS'OLSON CINDY K'
p236
(dp237
g3
F1184.0
sg4
F77716.0
sg6
F0.6279949500587511
sg8
F0.372005049941249
sg9
F0.43877066666666664
sg10
F63791.0
sg11
I00
sg12
F100000.0
sg14
S'cindy.olson@enron.com'
p238
sg16
F20.0
sg17
g18
sg19
g20
sg21
F856.0
sg22
g23
sg24
F52.0
sg25
F972.0
sg26
F0.28846153846153844
sg27
g28
sg29
F0.5069724405325685
sg30
F750000.0
sg31
F2606763.0
sg32
F15.0
sg33
F0.016891891891891893
sg34
F969729.0
sg35
F329078.0
sg36
F1321557.0
sg37
F1637034.0
ssS'MCDONALD REBECCA'
p239
(dp240
g3
F894.0
sg4
g5
sg6
F0.4477451953036776
sg8
F0.5522548046963224
sg9
g54
sg10
g55
sg11
I00
sg12
g13
sg14
S'rebecca.mcdonald@enron.com'
p241
sg16
F54.0
sg17
g18
sg19
g20
sg21
F720.0
sg22
g23
sg24
F13.0
sg25
g57
sg26
F0.07692307692307693
sg27
g28
sg29
g58
sg30
g59
sg31
F1691366.0
sg32
F1.0
sg33
F0.06040268456375839
sg34
F934065.0
sg35
g60
sg36
g61
sg37
F757301.0
ssS'CUMBERLAND MICHAEL S'
p242
(dp243
g3
g41
sg4
g5
sg6
g7
sg8
F1.0
sg9
F0.56892
sg10
F22344.0
sg11
I00
sg12
F275000.0
sg14
g42
sg16
g43
sg17
g18
sg19
g20
sg21
g44
sg22
g23
sg24
g45
sg25
F713.0
sg26
g46
sg27
g28
sg29
F3.8855246705780515
sg30
F325000.0
sg31
F207940.0
sg32
g47
sg33
g48
sg34
F207940.0
sg35
F184899.0
sg36
F807956.0
sg37
g38
ssS'GAHN ROBERT S'
p244
(dp245
g3
g41
sg4
F73122.0
sg6
F0.2612528914932817
sg8
F0.7387471085067183
sg9
F0.3765822660678212
sg10
F50080.0
sg11
I00
sg12
g13
sg14
g42
sg16
g43
sg17
F-1042.0
sg19
g20
sg21
g44
sg22
g23
sg24
g45
sg25
F76547.0
sg26
g46
sg27
g28
sg29
F2.8266328109551893
sg30
F509870.0
sg31
F318607.0
sg32
g47
sg33
g48
sg34
F235370.0
sg35
F192008.0
sg36
F900585.0
sg37
F83237.0
ssS'BADUM JAMES P'
p246
(dp247
g3
g41
sg4
F178980.0
sg6
F1.0
sg8
g82
sg9
g54
sg10
F3486.0
sg11
I00
sg12
g13
sg14
g42
sg16
g43
sg17
g18
sg19
g20
sg21
g44
sg22
g23
sg24
g45
sg25
g57
sg26
g46
sg27
g28
sg29
F0.7077345559059333
sg30
g59
sg31
F257817.0
sg32
g47
sg33
g48
sg34
g84
sg35
g60
sg36
F182466.0
sg37
F257817.0
ssS'HERMANN ROBERT J'
p248
(dp249
g3
g41
sg4
g5
sg6
F0.2806331682960852
sg8
F0.7193668317039148
sg9
F0.37523285714285715
sg10
F48357.0
sg11
I00
sg12
F150000.0
sg14
S'robert.hermann@enron.com'
p250
sg16
g43
sg17
F-280000.0
sg19
g20
sg21
g44
sg22
g23
sg24
g45
sg25
F416441.0
sg26
g46
sg27
g28
sg29
F1.9419231529099041
sg30
F700000.0
sg31
F668132.0
sg32
g47
sg33
g48
sg34
F480632.0
sg35
F262663.0
sg36
F1297461.0
sg37
F187500.0
ssS'FALLON JAMES B'
p251
(dp252
g3
F1755.0
sg4
g5
sg6
F0.40312870996771993
sg8
F0.5968712900322801
sg9
F0.1218352
sg10
F95924.0
sg11
I00
sg12
F374347.0
sg14
S'jim.fallon@enron.com'
p253
sg16
F42.0
sg17
g18
sg19
g20
sg21
F1604.0
sg22
g23
sg24
F75.0
sg25
F401481.0
sg26
F0.49333333333333335
sg27
g28
sg29
F1.5762054434082675
sg30
F2500000.0
sg31
F2332399.0
sg32
F37.0
sg33
F0.023931623931623933
sg34
F1392142.0
sg35
F304588.0
sg36
F3676340.0
sg37
F940257.0
ssS'GATHMANN WILLIAM D'
p254
(dp255
g3
g41
sg4
g5
sg6
F0.9015123164864087
sg8
F0.13571421227947528
sg9
g54
sg10
g55
sg11
I00
sg12
g13
sg14
g42
sg16
g43
sg17
g18
sg19
F-72419.0
sg21
g44
sg22
g23
sg24
g45
sg25
g57
sg26
g46
sg27
g28
sg29
g58
sg30
g59
sg31
F1945360.0
sg32
g47
sg33
g48
sg34
F264013.0
sg35
g60
sg36
g61
sg37
F1753766.0
ssS'HORTON STANLEY C'
p256
(dp257
g3
F2350.0
sg4
F3131860.0
sg6
F0.7180407538025821
sg8
F0.28195924619741786
sg9
g54
sg10
g55
sg11
I00
sg12
g13
sg14
S'stanley.horton@enron.com'
p258
sg16
F44.0
sg17
g18
sg19
g20
sg21
F1074.0
sg22
g23
sg24
F1073.0
sg25
g57
sg26
F0.013979496738117428
sg27
g28
sg29
F0.4315849411463805
sg30
g59
sg31
F7256648.0
sg32
F15.0
sg33
F0.01872340425531915
sg34
F2046079.0
sg35
g60
sg36
F3131860.0
sg37
F5210569.0
ssS'BOWEN JR RAYMOND M'
p259
(dp260
g3
F1858.0
sg4
g5
sg6
g7
sg8
F1.0
sg9
F0.20637111111111112
sg10
F65907.0
sg11
I01
sg12
F974293.0
sg14
S'raymond.bowen@enron.com'
p261
sg16
F140.0
sg17
F-833.0
sg19
g20
sg21
F1593.0
sg22
g23
sg24
F27.0
sg25
F1621.0
sg26
F0.5555555555555556
sg27
g28
sg29
F10.59129555057428
sg30
F1350000.0
sg31
F252055.0
sg32
F15.0
sg33
F0.07534983853606028
sg34
F252055.0
sg35
F278601.0
sg36
F2669589.0
sg37
g38
ssS'GILLIS JOHN'
p262
(dp263
g3
g41
sg4
g5
sg6
F0.11446620193598861
sg8
F0.8855337980640114
sg9
g54
sg10
g55
sg11
I00
sg12
g13
sg14
g42
sg16
g43
sg17
g18
sg19
g20
sg21
g44
sg22
g23
sg24
g45
sg25
g57
sg26
g46
sg27
g28
sg29
g58
sg30
g59
sg31
F85641.0
sg32
g47
sg33
g48
sg34
F75838.0
sg35
g60
sg36
g61
sg37
F9803.0
ssS'FITZGERALD JAY L'
p264
(dp265
g3
F936.0
sg4
g5
sg6
F0.40984841195236227
sg8
F0.5901515880476377
sg9
F0.56902
sg10
F23870.0
sg11
I00
sg12
F556416.0
sg14
S'jay.fitzgerald@enron.com'
p266
sg16
F1.0
sg17
g18
sg19
g20
sg21
F723.0
sg22
g23
sg24
F16.0
sg25
F285414.0
sg26
F0.5
sg27
g28
sg29
F0.8727026786969941
sg30
F350000.0
sg31
F1621236.0
sg32
F8.0
sg33
F0.0010683760683760685
sg34
F956775.0
sg35
F199157.0
sg36
F1414857.0
sg37
F664461.0
ssS'MORAN MICHAEL P'
p267
(dp268
g3
F672.0
sg4
g5
sg6
F0.2692354651557151
sg8
F0.7307645348442848
sg9
g54
sg10
g55
sg11
I00
sg12
g13
sg14
S'michael.moran@enron.com'
p269
sg16
g43
sg17
g18
sg19
g20
sg21
F127.0
sg22
g23
sg24
F19.0
sg25
g57
sg26
g46
sg27
g28
sg29
g58
sg30
g59
sg31
F221141.0
sg32
g47
sg33
g48
sg34
F161602.0
sg35
g60
sg36
g61
sg37
F59539.0
ssS'REDMOND BRIAN L'
p270
(dp271
g3
F1671.0
sg4
g5
sg6
F0.951676889314051
sg8
F0.048323110685949015
sg9
g54
sg10
F14689.0
sg11
I00
sg12
g13
sg14
S'brian.redmond@enron.com'
p272
sg16
F204.0
sg17
g18
sg19
g20
sg21
F1063.0
sg22
g23
sg24
F221.0
sg25
g57
sg26
F0.22171945701357465
sg27
g28
sg29
F0.014134907514571011
sg30
g59
sg31
F7890324.0
sg32
F49.0
sg33
F0.12208258527827648
sg34
F381285.0
sg35
F96840.0
sg36
F111529.0
sg37
F7509039.0
ssS'BAZELIDES PHILIP J'
p273
(dp274
g3
g41
sg4
F684694.0
sg6
F1.0
sg8
g82
sg9
g54
sg10
g55
sg11
I00
sg12
F93750.0
sg14
g42
sg16
g43
sg17
g18
sg19
g20
sg21
g44
sg22
g23
sg24
g45
sg25
F874.0
sg26
g46
sg27
g28
sg29
F0.5377056477047037
sg30
g59
sg31
F1599641.0
sg32
g47
sg33
g48
sg34
g84
sg35
F80818.0
sg36
F860136.0
sg37
F1599641.0
ssS'BELDEN TIMOTHY N'
p275
(dp276
g3
F7991.0
sg4
F2144013.0
sg6
F0.8581360487258093
sg8
F0.1418639512741907
sg9
F0.04076172204985182
sg10
F17355.0
sg11
I01
sg12
g13
sg14
S'tim.belden@enron.com'
p277
sg16
F228.0
sg17
F-2334434.0
sg19
g20
sg21
F5521.0
sg22
g23
sg24
F484.0
sg25
F210698.0
sg26
F0.2231404958677686
sg27
g28
sg29
F4.953277422898069
sg30
F5249999.0
sg31
F1110705.0
sg32
F108.0
sg33
F0.028532098610937303
sg34
F157569.0
sg35
F213999.0
sg36
F5501630.0
sg37
F953136.0
ssS'DIMICHELE RICHARD G'
p278
(dp279
g3
g41
sg4
g5
sg6
F0.9848484848484849
sg8
F0.015151515151515152
sg9
F0.262788
sg10
F35812.0
sg11
I00
sg12
F694862.0
sg14
S'richard.dimichele@enron.com'
p280
sg16
g43
sg17
g18
sg19
g20
sg21
g44
sg22
g23
sg24
g45
sg25
F374689.0
sg26
g46
sg27
g28
sg29
F0.2847094333561519
sg30
F1000000.0
sg31
F8317782.0
sg32
g47
sg33
g48
sg34
F126027.0
sg35
F262788.0
sg36
F2368151.0
sg37
F8191755.0
ssS'DURAN WILLIAM D'
p281
(dp282
g3
F904.0
sg4
g5
sg6
F0.8847950222742259
sg8
F0.11520497772577411
sg9
F0.28092266666666665
sg10
F25785.0
sg11
I00
sg12
F1105218.0
sg14
S'w.duran@enron.com'
p283
sg16
F106.0
sg17
g18
sg19
g20
sg21
F599.0
sg22
g23
sg24
F12.0
sg25
F1568.0
sg26
F0.25
sg27
g28
sg29
F1.2756720356387614
sg30
F750000.0
sg31
F1640910.0
sg32
F3.0
sg33
F0.1172566371681416
sg34
F189041.0
sg35
F210692.0
sg36
F2093263.0
sg37
F1451869.0
ssS'THORN TERENCE H'
p284
(dp285
g3
F266.0
sg4
F16586.0
sg6
F0.9241727960254025
sg8
F0.07582720397459751
sg9
g54
sg10
F46145.0
sg11
I00
sg12
F200000.0
sg14
S'terence.thorn@enron.com'
p286
sg16
g43
sg17
g18
sg19
g20
sg21
F73.0
sg22
g23
sg24
F41.0
sg25
F426629.0
sg26
g46
sg27
g28
sg29
F0.18918463961529297
sg30
g59
sg31
F4817796.0
sg32
g47
sg33
g48
sg34
F365320.0
sg35
F222093.0
sg36
F911453.0
sg37
F4452476.0
ssS'FASTOW ANDREW S'
p287
(dp288
g3
g41
sg4
g5
sg6
g7
sg8
F1.0
sg9
F0.3389984615384615
sg10
F55921.0
sg11
I01
sg12
F1736055.0
sg14
S'andrew.fastow@enron.com'
p289
sg16
g43
sg17
F-1386055.0
sg19
g20
sg21
g44
sg22
g23
sg24
g45
sg25
F277464.0
sg26
g46
sg27
g28
sg29
F1.3509065922430301
sg30
F1300000.0
sg31
F1794412.0
sg32
g47
sg33
g48
sg34
F1794412.0
sg35
F440698.0
sg36
F2424083.0
sg37
g38
ssS'FOY JOE'
p290
(dp291
g3
F57.0
sg4
F181755.0
sg6
F1.0
sg8
g82
sg9
g54
sg10
g55
sg11
I00
sg12
g13
sg14
S'tracy.foy@enron.com'
p292
sg16
g43
sg17
g18
sg19
g20
sg21
F2.0
sg22
g23
sg24
F13.0
sg25
g57
sg26
g46
sg27
g28
sg29
F0.5292283233459704
sg30
g59
sg31
F343434.0
sg32
g47
sg33
g48
sg34
g84
sg35
g60
sg36
F181755.0
sg37
F343434.0
ssS'CALGER CHRISTOPHER F'
p293
(dp294
g3
F2598.0
sg4
g5
sg6
g7
sg8
F1.0
sg9
F0.1921512
sg10
F35818.0
sg11
I01
sg12
F375304.0
sg14
S'christopher.calger@enron.com'
p295
sg16
F199.0
sg17
F-262500.0
sg19
g20
sg21
F2188.0
sg22
g23
sg24
F144.0
sg25
F486.0
sg26
F0.1736111111111111
sg27
g28
sg29
F13.007506328009077
sg30
F1250000.0
sg31
F126027.0
sg32
F25.0
sg33
F0.07659738260200154
sg34
F126027.0
sg35
F240189.0
sg36
F1639297.0
sg37
g38
ssS'RICE KENNETH D'
p296
(dp297
g3
F905.0
sg4
g5
sg6
F0.8780809916753388
sg8
F0.12191900832466121
sg9
F0.24036342857142856
sg10
F46950.0
sg11
I01
sg12
F1617011.0
sg14
S'ken.rice@enron.com'
p298
sg16
F42.0
sg17
F-3504386.0
sg19
g20
sg21
F864.0
sg22
g23
sg24
F18.0
sg25
F174839.0
sg26
F0.2222222222222222
sg27
g28
sg29
F0.02240430858298615
sg30
F1750000.0
sg31
F22542539.0
sg32
F4.0
sg33
F0.04640883977900553
sg34
F2748364.0
sg35
F420636.0
sg36
F505050.0
sg37
F19794175.0
ssS'KAMINSKI WINCENTY J'
p299
(dp300
g3
F4607.0
sg4
g5
sg6
F0.8708788703706929
sg8
F0.12912112962930708
sg9
F0.6877525
sg10
F83585.0
sg11
I00
sg12
F323466.0
sg14
S'vince.kaminski@enron.com'
p301
sg16
F41.0
sg17
g18
sg19
g20
sg21
F583.0
sg22
g23
sg24
F14368.0
sg25
F4669.0
sg26
F0.011901447661469933
sg27
g28
sg29
F1.1135038938073045
sg30
F400000.0
sg31
F976037.0
sg32
F171.0
sg33
F0.008899500759713479
sg34
F126027.0
sg35
F275101.0
sg36
F1086821.0
sg37
F850010.0
ssS'LOCKHART EUGENE E'
p302
(dp303
g3
g41
sg4
g5
sg6
g7
sg8
g82
sg9
g54
sg10
g55
sg11
I00
sg12
g13
sg14
g42
sg16
g43
sg17
g18
sg19
g20
sg21
g44
sg22
g23
sg24
g45
sg25
g57
sg26
g46
sg27
g28
sg29
g58
sg30
g59
sg31
g120
sg32
g47
sg33
g48
sg34
g84
sg35
g60
sg36
g61
sg37
g38
ssS'COX DAVID'
p304
(dp305
g3
F102.0
sg4
g5
sg6
F0.23717347311417925
sg8
F0.7628265268858208
sg9
F0.39286
sg10
F27861.0
sg11
I00
sg12
g13
sg14
S'chip.cox@enron.com'
p306
sg16
g43
sg17
F-41250.0
sg19
g20
sg21
F71.0
sg22
g23
sg24
F33.0
sg25
F494.0
sg26
F0.12121212121212122
sg27
g28
sg29
F2.222194648056122
sg30
F800000.0
sg31
F495633.0
sg32
F4.0
sg33
g48
sg34
F378082.0
sg35
F314288.0
sg36
F1101393.0
sg37
F117551.0
ssS'OVERDYKE JR JERE C'
p307
(dp308
g3
g41
sg4
g5
sg6
F0.7206993163550137
sg8
F0.2793006836449863
sg9
g54
sg10
F18834.0
sg11
I00
sg12
F135836.0
sg14
S'jere.overdyke@enron.com'
p309
sg16
g43
sg17
g18
sg19
g20
sg21
g44
sg22
g23
sg24
g45
sg25
F176.0
sg26
g46
sg27
g28
sg29
F0.03418183878305226
sg30
g59
sg31
F7307594.0
sg32
g47
sg33
g48
sg34
F2041016.0
sg35
F94941.0
sg36
F249787.0
sg37
F5266578.0
ssS'PEREIRA PAULO V. FERRAZ'
p310
(dp311
g3
g41
sg4
g5
sg6
g7
sg8
g82
sg9
g54
sg10
F27942.0
sg11
I00
sg12
g13
sg14
g42
sg16
g43
sg17
F-101250.0
sg19
g20
sg21
g44
sg22
g23
sg24
g45
sg25
g57
sg26
g46
sg27
F101250.0
sg29
g58
sg30
g59
sg31
g120
sg32
g47
sg33
g48
sg34
g84
sg35
g60
sg36
F27942.0
sg37
g38
ssS'STABLER FRANK'
p312
(dp313
g3
g41
sg4
g5
sg6
g7
sg8
F1.0
sg9
F0.479004
sg10
F16514.0
sg11
I00
sg12
g13
sg14
S'frank.stabler@enron.com'
p314
sg16
g43
sg17
g18
sg19
g20
sg21
g44
sg22
g23
sg24
g45
sg25
F356071.0
sg26
g46
sg27
g28
sg29
F2.1731739536556103
sg30
F500000.0
sg31
F511734.0
sg32
g47
sg33
g48
sg34
F511734.0
sg35
F239502.0
sg36
F1112087.0
sg37
g38
ssS'SKILLING JEFFREY K'
p315
(dp316
g3
F3627.0
sg4
g5
sg6
F0.7377267561269261
sg8
F0.2622732438730739
sg9
F0.19843892857142856
sg10
F29336.0
sg11
I01
sg12
F1920000.0
sg14
S'jeff.skilling@enron.com'
p317
sg16
F88.0
sg17
g18
sg19
g20
sg21
F2042.0
sg22
g23
sg24
F108.0
sg25
F22122.0
sg26
F0.2777777777777778
sg27
g28
sg29
F0.3327517874831875
sg30
F5600000.0
sg31
F26093672.0
sg32
F30.0
sg33
F0.0242624758753791
sg34
F6843672.0
sg35
F1111258.0
sg36
F8682716.0
sg37
F19250000.0
ssS'BLAKE JR. NORMAN P'
p318
(dp319
g3
g41
sg4
g5
sg6
g7
sg8
g82
sg9
g54
sg10
F1279.0
sg11
I00
sg12
g13
sg14
g42
sg16
g43
sg17
F-113784.0
sg19
g20
sg21
g44
sg22
g23
sg24
g45
sg25
g57
sg26
g46
sg27
F113784.0
sg29
g58
sg30
g59
sg31
g120
sg32
g47
sg33
g48
sg34
g84
sg35
g60
sg36
F1279.0
sg37
g38
ssS'SHERRICK JEFFREY B'
p320
(dp321
g3
F613.0
sg4
g5
sg6
F0.7784414243522942
sg8
F0.22155857564770573
sg9
g54
sg10
g55
sg11
I00
sg12
g13
sg14
S'jeffrey.sherrick@enron.com'
p322
sg16
F39.0
sg17
g18
sg19
g20
sg21
F583.0
sg22
g23
sg24
F25.0
sg25
g57
sg26
F0.72
sg27
g28
sg29
g58
sg30
g59
sg31
F1832468.0
sg32
F18.0
sg33
F0.0636215334420881
sg34
F405999.0
sg35
g60
sg36
g61
sg37
F1426469.0
ssS'PRENTICE JAMES'
p323
(dp324
g3
g41
sg4
F564348.0
sg6
F0.8093138150204559
sg8
F0.19068618497954412
sg9
g54
sg10
g55
sg11
I00
sg12
g13
sg14
S'james.prentice@enron.com'
p325
sg16
g43
sg17
g18
sg19
g20
sg21
g44
sg22
g23
sg24
g45
sg25
g57
sg26
g46
sg27
g28
sg29
F0.5153674751607247
sg30
g59
sg31
F1095040.0
sg32
g47
sg33
g48
sg34
F208809.0
sg35
g60
sg36
F564348.0
sg37
F886231.0
ssS'GRAY RODNEY'
p326
(dp327
g3
g41
sg4
F93585.0
sg6
g7
sg8
g82
sg9
g54
sg10
g55
sg11
I00
sg12
F365625.0
sg14
g42
sg16
g43
sg17
g18
sg19
g20
sg21
g44
sg22
g23
sg24
g45
sg25
F680833.0
sg26
g46
sg27
g28
sg29
g58
sg30
g59
sg31
g120
sg32
g47
sg33
g48
sg34
g84
sg35
F6615.0
sg36
F1146658.0
sg37
g38
ssS'UMANOFF ADAM S'
p328
(dp329
g3
F111.0
sg4
g5
sg6
g7
sg8
g82
sg9
F0.36588145800316957
sg10
F53122.0
sg11
I00
sg12
g13
sg14
S'adam.umanoff@enron.com'
p330
sg16
F12.0
sg17
g18
sg19
g20
sg21
F41.0
sg22
g23
sg24
F18.0
sg25
g57
sg26
g46
sg27
g28
sg29
g58
sg30
F788750.0
sg31
g120
sg32
g47
sg33
F0.10810810810810811
sg34
g84
sg35
F288589.0
sg36
F1130461.0
sg37
g38
ssS'KEAN STEVEN J'
p331
(dp332
g3
F12754.0
sg4
g5
sg6
F0.32859370109603386
sg8
F0.6714062989039662
sg9
F0.404338
sg10
F41953.0
sg11
I00
sg12
F300000.0
sg14
S'steven.kean@enron.com'
p333
sg16
F140.0
sg17
g18
sg19
g20
sg21
F3639.0
sg22
g23
sg24
F6759.0
sg25
F1231.0
sg26
F0.05725699067909454
sg27
g28
sg29
F0.28398174609442667
sg30
F1000000.0
sg31
F6153642.0
sg32
F387.0
sg33
F0.010976948408342482
sg34
F4131594.0
sg35
F404338.0
sg36
F1747522.0
sg37
F2022048.0
ssS'FOWLER PEGGY'
p334
(dp335
g3
F517.0
sg4
g5
sg6
F0.7027878528057863
sg8
F0.29721214719421374
sg9
g54
sg10
g55
sg11
I00
sg12
g13
sg14
S'kulvinder.fowler@enron.com'
p336
sg16
g43
sg17
g18
sg19
g20
sg21
F10.0
sg22
g23
sg24
F36.0
sg25
g57
sg26
g46
sg27
g28
sg29
g58
sg30
g59
sg31
F1884748.0
sg32
g47
sg33
g48
sg34
F560170.0
sg35
g60
sg36
g61
sg37
F1324578.0
ssS'WASAFF GEORGE'
p337
(dp338
g3
F400.0
sg4
F831299.0
sg6
F0.8112420231790382
sg8
F0.1887579768209618
sg9
F0.7999876923076923
sg10
g55
sg11
I00
sg12
F200000.0
sg14
S'george.wasaff@enron.com'
p339
sg16
F22.0
sg17
F-583325.0
sg19
g20
sg21
F337.0
sg22
g23
sg24
F30.0
sg25
F1425.0
sg26
F0.23333333333333334
sg27
g28
sg29
F0.5030059418593512
sg30
F325000.0
sg31
F2056427.0
sg32
F7.0
sg33
F0.055
sg34
F388167.0
sg35
F259996.0
sg36
F1034395.0
sg37
F1668260.0
ssS'WHITE JR THOMAS E'
p340
(dp341
g3
g41
sg4
g5
sg6
F0.08564701963923563
sg8
F0.9143529803607644
sg9
F0.7056511111111111
sg10
F81353.0
sg11
I00
sg12
g13
sg14
S'thomas.white@enron.com'
p342
sg16
g43
sg17
g18
sg19
g20
sg21
g44
sg22
g23
sg24
g45
sg25
F1085463.0
sg26
g46
sg27
g28
sg29
F0.12773001117331126
sg30
F450000.0
sg31
F15144123.0
sg32
g47
sg33
g48
sg34
F13847074.0
sg35
F317543.0
sg36
F1934359.0
sg37
F1297049.0
ssS'CHRISTODOULOU DIOMEDES'
p343
(dp344
g3
g41
sg4
g5
sg6
F0.8435755201027989
sg8
F0.15642447989720107
sg9
g54
sg10
g55
sg11
I00
sg12
g13
sg14
S'diomedes.christodoulou@enron.com'
p345
sg16
g43
sg17
g18
sg19
g20
sg21
g44
sg22
g23
sg24
g45
sg25
g57
sg26
g46
sg27
g28
sg29
g58
sg30
g59
sg31
F6077885.0
sg32
g47
sg33
g48
sg34
F950730.0
sg35
g60
sg36
g61
sg37
F5127155.0
ssS'ALLEN PHILLIP K'
p346
(dp347
g3
F2902.0
sg4
F2869717.0
sg6
F1.0
sg8
F0.07286730988163911
sg9
F0.04837245508982036
sg10
F13868.0
sg11
I00
sg12
F304805.0
sg14
S'phillip.allen@enron.com'
p348
sg16
F47.0
sg17
F-3081055.0
sg19
F-126027.0
sg21
F1407.0
sg22
g23
sg24
F2195.0
sg25
F152.0
sg26
F0.029612756264236904
sg27
g28
sg29
F2.592850935595051
sg30
F4175000.0
sg31
F1729541.0
sg32
F65.0
sg33
F0.016195727084769126
sg34
F126027.0
sg35
F201955.0
sg36
F4484442.0
sg37
F1729541.0
ssS'SHARP VICTORIA T'
p349
(dp350
g3
F3136.0
sg4
F187469.0
sg6
F0.5688170867939191
sg8
F0.43118291320608093
sg9
F0.41357666666666665
sg10
F116337.0
sg11
I00
sg12
F422158.0
sg14
S'vicki.sharp@enron.com'
p351
sg16
F24.0
sg17
g18
sg19
g20
sg21
F2477.0
sg22
g23
sg24
F136.0
sg25
F2401.0
sg26
F0.04411764705882353
sg27
g28
sg29
F3.190439474152865
sg30
F600000.0
sg31
F494136.0
sg32
F6.0
sg33
F0.007653061224489796
sg34
F213063.0
sg35
F248146.0
sg36
F1576511.0
sg37
F281073.0
ssS'JAEDICKE ROBERT'
p352
(dp353
g3
g41
sg4
g5
sg6
F1.0
sg8
F0.10212623045744065
sg9
g54
sg10
g55
sg11
I00
sg12
g13
sg14
g42
sg16
g43
sg17
F-25000.0
sg19
F-44093.0
sg21
g44
sg22
g23
sg24
g45
sg25
g57
sg26
g46
sg27
F108750.0
sg29
F0.19397799652576722
sg30
g59
sg31
F431750.0
sg32
g47
sg33
g48
sg34
F44093.0
sg35
g60
sg36
F83750.0
sg37
F431750.0
ssS'WINOKUR JR. HERBERT S'
p354
(dp355
g3
g41
sg4
g5
sg6
g7
sg8
g82
sg9
g54
sg10
F1413.0
sg11
I00
sg12
g13
sg14
g42
sg16
g43
sg17
F-25000.0
sg19
g20
sg21
g44
sg22
g23
sg24
g45
sg25
g57
sg26
g46
sg27
F108579.0
sg29
g58
sg30
g59
sg31
g120
sg32
g47
sg33
g48
sg34
g84
sg35
g60
sg36
F84992.0
sg37
g38
ssS'BROWN MICHAEL'
p356
(dp357
g3
F1486.0
sg4
g5
sg6
g7
sg8
g82
sg9
g54
sg10
F49288.0
sg11
I00
sg12
g13
sg14
S'michael.brown@enron.com'
p358
sg16
F13.0
sg17
g18
sg19
g20
sg21
F761.0
sg22
g23
sg24
F41.0
sg25
g57
sg26
F0.024390243902439025
sg27
g28
sg29
g58
sg30
g59
sg31
g120
sg32
F1.0
sg33
F0.008748317631224764
sg34
g84
sg35
g60
sg36
F49288.0
sg37
g38
ssS'MCCLELLAN GEORGE'
p359
(dp360
g3
F1744.0
sg4
g5
sg6
F0.534640627686971
sg8
F0.46535937231302904
sg9
F0.2926811111111111
sg10
F228763.0
sg11
I00
sg12
g13
sg14
S'george.mcclellan@enron.com'
p361
sg16
F52.0
sg17
F-125000.0
sg19
g20
sg21
F1469.0
sg22
g23
sg24
F49.0
sg25
F51587.0
sg26
g46
sg27
g28
sg29
F1.391304210216477
sg30
F900000.0
sg31
F947861.0
sg32
g47
sg33
F0.02981651376146789
sg34
F441096.0
sg35
F263413.0
sg36
F1318763.0
sg37
F506765.0
ssS'HUGHES JAMES A'
p362
(dp363
g3
F719.0
sg4
g5
sg6
F0.6750447516706992
sg8
F0.3249552483293008
sg9
g54
sg10
g55
sg11
I00
sg12
g13
sg14
S'james.hughes@enron.com'
p364
sg16
F35.0
sg17
g18
sg19
g20
sg21
F589.0
sg22
g23
sg24
F34.0
sg25
g57
sg26
F0.14705882352941177
sg27
g28
sg29
g58
sg30
g59
sg31
F1118394.0
sg32
F5.0
sg33
F0.048678720445062586
sg34
F363428.0
sg35
g60
sg36
g61
sg37
F754966.0
ssS'REYNOLDS LAWRENCE'
p365
(dp366
g3
g41
sg4
F51365.0
sg6
F0.9854996256416853
sg8
F0.047723401670009956
sg9
F0.76399
sg10
F8409.0
sg11
I00
sg12
F156250.0
sg14
g42
sg16
g43
sg17
F-200000.0
sg19
F-140264.0
sg21
g44
sg22
g23
sg24
g45
sg25
F202052.0
sg26
g46
sg27
g28
sg29
F0.09343561925213133
sg30
F100000.0
sg31
F4221891.0
sg32
g47
sg33
g48
sg34
F201483.0
sg35
F76399.0
sg36
F394475.0
sg37
F4160672.0
ssS'PICKERING MARK R'
p367
(dp368
g3
F898.0
sg4
g5
sg6
F1.0
sg8
g82
sg9
F2.183456666666667
sg10
F31653.0
sg11
I00
sg12
g13
sg14
S'mark.pickering@enron.com'
p369
sg16
F7.0
sg17
g18
sg19
g20
sg21
F728.0
sg22
F400000.0
sg24
F67.0
sg25
g57
sg26
g46
sg27
g28
sg29
F48.15230224321133
sg30
F300000.0
sg31
F28798.0
sg32
g47
sg33
F0.0077951002227171495
sg34
g84
sg35
F655037.0
sg36
F1386690.0
sg37
F28798.0
ssS'BHATNAGAR SANJAY'
p370
(dp371
g3
F523.0
sg4
g5
sg6
g7
sg8
g82
sg9
g54
sg10
g55
sg11
I00
sg12
g13
sg14
S'sanjay.bhatnagar@enron.com'
p372
sg16
g43
sg17
g18
sg19
F15456290.0
sg21
F463.0
sg22
g23
sg24
F29.0
sg25
F137864.0
sg26
F0.034482758620689655
sg27
F137864.0
sg29
g58
sg30
g59
sg31
g120
sg32
F1.0
sg33
g48
sg34
F-2604490.0
sg35
g60
sg36
F15456290.0
sg37
F2604490.0
ssS'CARTER REBECCA C'
p373
(dp374
g3
F312.0
sg4
g5
sg6
g7
sg8
g82
sg9
F0.8726966666666667
sg10
g55
sg11
I00
sg12
F75000.0
sg14
S'rebecca.carter@enron.com'
p375
sg16
F29.0
sg17
F-159792.0
sg19
F-307301.0
sg21
F196.0
sg22
g23
sg24
F15.0
sg25
F540.0
sg26
F0.4666666666666667
sg27
g28
sg29
g58
sg30
F300000.0
sg31
g120
sg32
F7.0
sg33
F0.09294871794871795
sg34
F307301.0
sg35
F261809.0
sg36
F477557.0
sg37
g38
ssS'BUCHANAN HAROLD G'
p376
(dp377
g3
F1088.0
sg4
g5
sg6
F0.8136618350821336
sg8
F0.18633816491786634
sg9
F0.496034
sg10
F600.0
sg11
I00
sg12
F304805.0
sg14
S'john.buchanan@enron.com'
p378
sg16
g43
sg17
g18
sg19
g20
sg21
F23.0
sg22
g23
sg24
F125.0
sg25
F1215.0
sg26
g46
sg27
g28
sg29
F1.039558208190201
sg30
F500000.0
sg31
F1014505.0
sg32
g47
sg33
g48
sg34
F189041.0
sg35
F248017.0
sg36
F1054637.0
sg37
F825464.0
ssS'YEAP SOON'
p379
(dp380
g3
g41
sg4
g5
sg6
F1.0
sg8
g82
sg9
g54
sg10
F55097.0
sg11
I00
sg12
g13
sg14
g42
sg16
g43
sg17
g18
sg19
g20
sg21
g44
sg22
g23
sg24
g45
sg25
g57
sg26
g46
sg27
g28
sg29
F0.2858350885566358
sg30
g59
sg31
F192758.0
sg32
g47
sg33
g48
sg34
g84
sg35
g60
sg36
F55097.0
sg37
F192758.0
ssS'MURRAY JULIA H'
p381
(dp382
g3
F2192.0
sg4
g5
sg6
F0.6702998187329382
sg8
F0.3297001812670618
sg9
F0.57321
sg10
F57580.0
sg11
I00
sg12
F125000.0
sg14
S'julia.murray@enron.com'
p383
sg16
F11.0
sg17
g18
sg19
g20
sg21
F395.0
sg22
g23
sg24
F45.0
sg25
F330.0
sg26
F0.044444444444444446
sg27
g28
sg29
F1.35940923340603
sg30
F400000.0
sg31
F597461.0
sg32
F2.0
sg33
F0.005018248175182482
sg34
F196983.0
sg35
F229284.0
sg36
F812194.0
sg37
F400478.0
ssS'GARLAND C KEVIN'
p384
(dp385
g3
F209.0
sg4
g5
sg6
F0.7099747476156415
sg8
F0.2900252523843585
sg9
F0.2728776470588235
sg10
F48405.0
sg11
I00
sg12
F375304.0
sg14
S'kevin.garland@enron.com'
p386
sg16
F10.0
sg17
g18
sg19
g20
sg21
F178.0
sg22
g23
sg24
F44.0
sg25
F60814.0
sg26
F0.6136363636363636
sg27
g28
sg29
F1.7479928092635968
sg30
F850000.0
sg31
F896153.0
sg32
F27.0
sg33
F0.04784688995215311
sg34
F259907.0
sg35
F231946.0
sg36
F1566469.0
sg37
F636246.0
ssS'DODSON KEITH'
p387
(dp388
g3
F176.0
sg4
g5
sg6
g7
sg8
g82
sg9
F3.1571857142857143
sg10
F28164.0
sg11
I00
sg12
g13
sg14
S'keith.dodson@enron.com'
p389
sg16
F10.0
sg17
g18
sg19
g20
sg21
F114.0
sg22
g23
sg24
F14.0
sg25
F774.0
sg26
F0.21428571428571427
sg27
g28
sg29
g58
sg30
F70000.0
sg31
g120
sg32
F3.0
sg33
F0.056818181818181816
sg34
g84
sg35
F221003.0
sg36
F319941.0
sg37
g38
ssS'YEAGER F SCOTT'
p390
(dp391
g3
g41
sg4
g5
sg6
F0.6990930736662875
sg8
F0.30090692633371247
sg9
g54
sg10
F53947.0
sg11
I01
sg12
g13
sg14
S'scott.yeager@enron.com'
p392
sg16
g43
sg17
g18
sg19
g20
sg21
g44
sg22
g23
sg24
g45
sg25
F147950.0
sg26
g46
sg27
g28
sg29
F0.030316141060676205
sg30
g59
sg31
F11884758.0
sg32
g47
sg33
g48
sg34
F3576206.0
sg35
F158403.0
sg36
F360300.0
sg37
F8308552.0
ssS'HIRKO JOSEPH'
p393
(dp394
g3
g41
sg4
F10259.0
sg6
F1.0
sg8
g82
sg9
g54
sg10
F77978.0
sg11
I01
sg12
g13
sg14
S'joe.hirko@enron.com'
p395
sg16
g43
sg17
g18
sg19
g20
sg21
g44
sg22
g23
sg24
g45
sg25
F2856.0
sg26
g46
sg27
g28
sg29
F0.0029608272283383405
sg30
g59
sg31
F30766064.0
sg32
g47
sg33
g48
sg34
g84
sg35
g60
sg36
F91093.0
sg37
F30766064.0
ssS'DIETRICH JANET R'
p396
(dp397
g3
F2572.0
sg4
g5
sg6
F0.8310706149364614
sg8
F0.16892938506353858
sg9
F0.41683333333333333
sg10
F3475.0
sg11
I00
sg12
F556416.0
sg14
S'janet.dietrich@enron.com'
p398
sg16
F305.0
sg17
g18
sg19
g20
sg21
F1902.0
sg22
g23
sg24
F63.0
sg25
F473.0
sg26
F0.2222222222222222
sg27
g28
sg29
F0.756245687198506
sg30
F600000.0
sg31
F1865087.0
sg32
F14.0
sg33
F0.11858475894245724
sg34
F315068.0
sg35
F250100.0
sg36
F1410464.0
sg37
F1550019.0
ssS'DERRICK JR. JAMES V'
p399
(dp400
g3
F2181.0
sg4
g5
sg6
F1.0
sg8
F0.20237744642638578
sg9
F0.61546875
sg10
F51124.0
sg11
I00
sg12
F484000.0
sg14
S'james.derrick@enron.com'
p401
sg16
F64.0
sg17
F-1284000.0
sg19
F-1787380.0
sg21
F1401.0
sg22
g23
sg24
F909.0
sg25
F7482.0
sg26
F0.022002200220022004
sg27
g28
sg29
F0.06238523862270835
sg30
F800000.0
sg31
F8831913.0
sg32
F20.0
sg33
F0.029344337459880788
sg34
F1787380.0
sg35
F492375.0
sg36
F550981.0
sg37
F8831913.0
ssS'FREVERT MARK A'
p402
(dp403
g3
F3275.0
sg4
F6426990.0
sg6
F0.713540281428528
sg8
F0.28645971857147207
sg9
F0.530466
sg10
F86987.0
sg11
I00
sg12
F1617011.0
sg14
S'mark.frevert@enron.com'
p404
sg16
F242.0
sg17
F-3367011.0
sg19
g20
sg21
F2979.0
sg22
F2000000.0
sg24
F21.0
sg25
F7427621.0
sg26
F0.2857142857142857
sg27
g28
sg29
F1.179887274029155
sg30
F2000000.0
sg31
F14622185.0
sg32
F6.0
sg33
F0.07389312977099237
sg34
F4188667.0
sg35
F1060932.0
sg36
F17252530.0
sg37
F10433518.0
ssS'PAI LOU L'
p405
(dp406
g3
g41
sg4
g5
sg6
F0.6450672665508715
sg8
F0.35493273344912846
sg9
F0.261879
sg10
F32047.0
sg11
I00
sg12
g13
sg14
S'lou.pai@enron.com'
p407
sg16
g43
sg17
g18
sg19
g20
sg21
g44
sg22
g23
sg24
g45
sg25
F1829457.0
sg26
g46
sg27
g28
sg29
F0.13113578719897154
sg30
F1000000.0
sg31
F23817930.0
sg32
g47
sg33
g48
sg34
F8453763.0
sg35
F261879.0
sg36
F3123383.0
sg37
F15364167.0
ssS'HAYSLETT RODERICK J'
p408
(dp409
g3
F2649.0
sg4
g5
sg6
g7
sg8
F1.0
sg9
g54
sg10
g55
sg11
I00
sg12
g13
sg14
S'rod.hayslett@enron.com'
p410
sg16
F35.0
sg17
g18
sg19
g20
sg21
F571.0
sg22
g23
sg24
F1061.0
sg25
g57
sg26
F0.03581526861451461
sg27
g28
sg29
g58
sg30
g59
sg31
F346663.0
sg32
F38.0
sg33
F0.01321253303133258
sg34
F346663.0
sg35
g60
sg36
g61
sg37
g38
ssS'BAY FRANKLIN R'
p411
(dp412
g3
g41
sg4
F260455.0
sg6
g7
sg8
F2.3137080648744726
sg9
F0.5991775
sg10
F129142.0
sg11
I00
sg12
g13
sg14
S'frank.bay@enron.com'
p413
sg16
g43
sg17
F-201641.0
sg19
F-82782.0
sg21
g44
sg22
g23
sg24
g45
sg25
F69.0
sg26
g46
sg27
g28
sg29
F13.135112832069064
sg30
F400000.0
sg31
F63014.0
sg32
g47
sg33
g48
sg34
F145796.0
sg35
F239671.0
sg36
F827696.0
sg37
g38
ssS'MCCARTY DANNY J'
p414
(dp415
g3
F1433.0
sg4
g5
sg6
F0.8754089633971995
sg8
F0.12459103660280052
sg9
g54
sg10
g55
sg11
I00
sg12
g13
sg14
S'danny.mccarty@enron.com'
p416
sg16
F25.0
sg17
g18
sg19
g20
sg21
F508.0
sg22
g23
sg24
F215.0
sg25
g57
sg26
F0.009302325581395349
sg27
g28
sg29
g58
sg30
g59
sg31
F758931.0
sg32
F2.0
sg33
F0.017445917655268667
sg34
F94556.0
sg35
g60
sg36
g61
sg37
F664375.0
ssS'FUGH JOHN L'
p417
(dp418
g3
g41
sg4
F50591.0
sg6
F1.0
sg8
g82
sg9
g54
sg10
g55
sg11
I00
sg12
g13
sg14
g42
sg16
g43
sg17
g18
sg19
g20
sg21
g44
sg22
g23
sg24
g45
sg25
g57
sg26
g46
sg27
g28
sg29
F0.28683282495549334
sg30
g59
sg31
F176378.0
sg32
g47
sg33
g48
sg34
g84
sg35
g60
sg36
F50591.0
sg37
F176378.0
ssS'SCRIMSHAW MATTHEW'
p419
(dp420
g3
g41
sg4
g5
sg6
F1.0
sg8
g82
sg9
g54
sg10
g55
sg11
I00
sg12
g13
sg14
S'matthew.scrimshaw@enron.com'
p421
sg16
g43
sg17
g18
sg19
g20
sg21
g44
sg22
g23
sg24
g45
sg25
g57
sg26
g46
sg27
g28
sg29
g58
sg30
g59
sg31
F759557.0
sg32
g47
sg33
g48
sg34
g84
sg35
g60
sg36
g61
sg37
F759557.0
ssS'KOENIG MARK E'
p422
(dp423
g3
F2374.0
sg4
g5
sg6
F0.3498529990026327
sg8
F0.6501470009973672
sg9
F0.44278
sg10
F127017.0
sg11
I01
sg12
F300000.0
sg14
S'mark.koenig@enron.com'
p424
sg16
F53.0
sg17
g18
sg19
g20
sg21
F2271.0
sg22
g23
sg24
F61.0
sg25
F150458.0
sg26
F0.2459016393442623
sg27
g28
sg29
F0.8267580876589473
sg30
F700000.0
sg31
F1920055.0
sg32
F15.0
sg33
F0.02232518955349621
sg34
F1248318.0
sg35
F309946.0
sg36
F1587421.0
sg37
F671737.0
ssS'SAVAGE FRANK'
p425
(dp426
g3
g41
sg4
g5
sg6
g7
sg8
g82
sg9
g54
sg10
g55
sg11
I00
sg12
g13
sg14
g42
sg16
g43
sg17
F-121284.0
sg19
g20
sg21
g44
sg22
g23
sg24
g45
sg25
g57
sg26
g46
sg27
F125034.0
sg29
g58
sg30
g59
sg31
g120
sg32
g47
sg33
g48
sg34
g84
sg35
g60
sg36
F3750.0
sg37
g38
ssS'IZZO LAWRENCE L'
p427
(dp428
g3
F496.0
sg4
g5
sg6
F0.3720239588452194
sg8
F0.6279760411547806
sg9
g54
sg10
F28093.0
sg11
I00
sg12
F312500.0
sg14
S'larry.izzo@enron.com'
p429
sg16
F28.0
sg17
g18
sg19
g20
sg21
F437.0
sg22
g23
sg24
F19.0
sg25
F1553729.0
sg26
F0.2631578947368421
sg27
g28
sg29
F0.3401379386183458
sg30
g59
sg31
F5819980.0
sg32
F5.0
sg33
F0.056451612903225805
sg34
F3654808.0
sg35
F85274.0
sg36
F1979596.0
sg37
F2165172.0
ssS'TILNEY ELIZABETH A'
p430
(dp431
g3
F460.0
sg4
g5
sg6
F0.5061889897794771
sg8
F0.4938110102205229
sg9
F0.82446
sg10
g55
sg11
I00
sg12
F275000.0
sg14
S'elizabeth.tilney@enron.com'
p432
sg16
F10.0
sg17
F-575000.0
sg19
g20
sg21
F379.0
sg22
g23
sg24
F19.0
sg25
F152055.0
sg26
F0.5789473684210527
sg27
g28
sg29
F0.3419337660803293
sg30
F300000.0
sg31
F1168042.0
sg32
F11.0
sg33
F0.021739130434782608
sg34
F576792.0
sg35
F247338.0
sg36
F399393.0
sg37
F591250.0
ssS'MARTIN AMANDA K'
p433
(dp434
g3
F1522.0
sg4
F85430.0
sg6
F1.0
sg8
g82
sg9
g54
sg10
F8211.0
sg11
I00
sg12
F5145434.0
sg14
S'a..martin@enron.com'
p435
sg16
F8.0
sg17
g18
sg19
g20
sg21
F477.0
sg22
g23
sg24
F230.0
sg25
F2818454.0
sg26
g46
sg27
g28
sg29
F4.060760100197749
sg30
g59
sg31
F2070306.0
sg32
g47
sg33
F0.005256241787122208
sg34
g84
sg35
F349487.0
sg36
F8407016.0
sg37
F2070306.0
ssS'BUY RICHARD B'
p436
(dp437
g3
F3523.0
sg4
F649584.0
sg6
F0.7382305550636237
sg8
F0.26176944493637627
sg9
F0.36727333333333334
sg10
g55
sg11
I00
sg12
F769862.0
sg14
S'rick.buy@enron.com'
p438
sg16
F156.0
sg17
F-694862.0
sg19
g20
sg21
F2333.0
sg22
g23
sg24
F1053.0
sg25
F400572.0
sg26
F0.06742640075973409
sg27
g28
sg29
F0.6839084097117989
sg30
F900000.0
sg31
F3444470.0
sg32
F71.0
sg33
F0.04428044280442804
sg34
F901657.0
sg35
F330546.0
sg36
F2355702.0
sg37
F2542813.0
ssS'GRAMM WENDY L'
p439
(dp440
g3
g41
sg4
g5
sg6
g7
sg8
g82
sg9
g54
sg10
g55
sg11
I00
sg12
g13
sg14
g42
sg16
g43
sg17
g18
sg19
g20
sg21
g44
sg22
g23
sg24
g45
sg25
g57
sg26
g46
sg27
F119292.0
sg29
g58
sg30
g59
sg31
g120
sg32
g47
sg33
g48
sg34
g84
sg35
g60
sg36
F119292.0
sg37
g38
ssS'CAUSEY RICHARD A'
p441
(dp442
g3
F1892.0
sg4
g5
sg6
g7
sg8
F1.0
sg9
F0.415189
sg10
F30674.0
sg11
I01
sg12
F350000.0
sg14
S'richard.causey@enron.com'
p443
sg16
F58.0
sg17
F-235000.0
sg19
g20
sg21
F1585.0
sg22
g23
sg24
F49.0
sg25
F307895.0
sg26
F0.24489795918367346
sg27
g28
sg29
F0.7468868689557377
sg30
F1000000.0
sg31
F2502063.0
sg32
F12.0
sg33
F0.0306553911205074
sg34
F2502063.0
sg35
F415189.0
sg36
F1868758.0
sg37
g38
ssS'TAYLOR MITCHELL S'
p444
(dp445
g3
F533.0
sg4
F227449.0
sg6
F0.849455067064561
sg8
F0.15054493293543902
sg9
F0.4420233333333333
sg10
g55
sg11
I00
sg12
g13
sg14
S'mitchell.taylor@enron.com'
p446
sg16
g43
sg17
g18
sg19
g20
sg21
F300.0
sg22
g23
sg24
F29.0
sg25
g57
sg26
g46
sg27
g28
sg29
F0.2917620815540949
sg30
F600000.0
sg31
F3745048.0
sg32
g47
sg33
g48
sg34
F563798.0
sg35
F265214.0
sg36
F1092663.0
sg37
F3181250.0
ssS'DONAHUE JR JEFFREY M'
p447
(dp448
g3
F865.0
sg4
g5
sg6
F0.7085370050361336
sg8
F0.2914629949638664
sg9
F0.34825125
sg10
F96268.0
sg11
I00
sg12
g13
sg14
S'jeff.donahue@enron.com'
p449
sg16
F188.0
sg17
F-300000.0
sg19
g20
sg21
F772.0
sg22
g23
sg24
F22.0
sg25
F891.0
sg26
F0.5
sg27
g28
sg29
F0.8101477537215954
sg30
F800000.0
sg31
F1080988.0
sg32
F11.0
sg33
F0.21734104046242775
sg34
F315068.0
sg35
F278601.0
sg36
F875760.0
sg37
F765920.0
ssS'GLISAN JR BEN F'
p450
(dp451
g3
F873.0
sg4
g5
sg6
F0.49416219465516487
sg8
F0.5058378053448351
sg9
F0.45829166666666665
sg10
F125978.0
sg11
I01
sg12
F71023.0
sg14
S'ben.glisan@enron.com'
p452
sg16
F52.0
sg17
g18
sg19
g20
sg21
F874.0
sg22
g23
sg24
F16.0
sg25
F200308.0
sg26
F0.375
sg27
g28
sg29
F1.6341796117377778
sg30
F600000.0
sg31
F778546.0
sg32
F6.0
sg33
F0.05956471935853379
sg34
F393818.0
sg35
F274975.0
sg36
F1272284.0
sg37
F384728.0
ss.