(lp0
S'poi'
p1
aS'total_stock_value'
p2
aS'to_poi_ratio'
p3
aS'restricted_ratio'
p4
aS'exercised_ratio'
p5
aS'long_term_incentive'
p6
aS'from_poi_to_this_person'
p7
aS'from_this_person_to_poi'
p8
aS'from_messages'
p9
aS'other'
p10
aS'expenses'
p11
aS'exercised_stock_options'
p12
aS'salary_bonus_ratio'
p13
a.